; Function Attrs: mustprogress nofree norecurse nosync nounwind willreturn memory(write, argmem: readwrite, inaccessiblemem: none) uwtable
define internal void @cff_slot_done(ptr nocapture noundef readonly %0) #7 {
  %2 = getelementptr inbounds i8, ptr %0, i64 296
  %3 = load ptr, ptr %2, align 8
  %.not = icmp eq ptr %3, null
  br i1 %.not, label %6, label %4

4:                                                ; preds = %1
  %5 = getelementptr inbounds i8, ptr %3, i64 64
  store ptr null, ptr %5, align 8
  br label %6

6:                                                ; preds = %4, %1
  ret void
}